; ModuleID = '16/180.c'
source_filename = "16/180.c"
target datalayout = "e-m:e-p270:32:32-p271:32:32-p272:64:64-i64:64-f80:128-n8:16:32:64-S128"
target triple = "x86_64-pc-linux-gnu"

@.str = private unnamed_addr constant [3 x i8] c"%d\00", align 1
@.str.1 = private unnamed_addr constant [5 x i8] c"%d%d\00", align 1
@.str.2 = private unnamed_addr constant [7 x i8] c"%d%d%d\00", align 1
@.str.3 = private unnamed_addr constant [9 x i8] c"%d%d%d%d\00", align 1
@.str.4 = private unnamed_addr constant [6 x i8] c"00001\00", align 1

; Function Attrs: noinline nounwind uwtable
define dso_local void @main() #0 {
  %1 = alloca i32, align 4
  %2 = alloca i32, align 4
  %3 = alloca i32, align 4
  %4 = alloca i32, align 4
  %5 = alloca i32, align 4
  %6 = alloca i32, align 4
  %7 = alloca i32, align 4
  %8 = call i32 (i8*, ...) @__isoc99_scanf(i8* getelementptr inbounds ([3 x i8], [3 x i8]* @.str, i64 0, i64 0), i32* %1)
  %9 = load i32, i32* %1, align 4
  %10 = icmp slt i32 %9, 10
  br i1 %10, label %11, label %14

11:                                               ; preds = %0
  %12 = load i32, i32* %1, align 4
  %13 = call i32 (i8*, ...) @printf(i8* getelementptr inbounds ([3 x i8], [3 x i8]* @.str, i64 0, i64 0), i32 %12)
  br label %76

14:                                               ; preds = %0
  %15 = load i32, i32* %1, align 4
  %16 = icmp sge i32 %15, 10
  br i1 %16, label %17, label %28

17:                                               ; preds = %14
  %18 = load i32, i32* %1, align 4
  %19 = icmp slt i32 %18, 100
  br i1 %19, label %20, label %28

20:                                               ; preds = %17
  %21 = load i32, i32* %1, align 4
  %22 = srem i32 %21, 10
  store i32 %22, i32* %2, align 4
  %23 = load i32, i32* %1, align 4
  %24 = sdiv i32 %23, 10
  store i32 %24, i32* %3, align 4
  %25 = load i32, i32* %2, align 4
  %26 = load i32, i32* %3, align 4
  %27 = call i32 (i8*, ...) @printf(i8* getelementptr inbounds ([5 x i8], [5 x i8]* @.str.1, i64 0, i64 0), i32 %25, i32 %26)
  br label %75

28:                                               ; preds = %17, %14
  %29 = load i32, i32* %1, align 4
  %30 = icmp sge i32 %29, 100
  br i1 %30, label %31, label %47

31:                                               ; preds = %28
  %32 = load i32, i32* %1, align 4
  %33 = icmp slt i32 %32, 1000
  br i1 %33, label %34, label %47

34:                                               ; preds = %31
  %35 = load i32, i32* %1, align 4
  %36 = srem i32 %35, 10
  store i32 %36, i32* %2, align 4
  %37 = load i32, i32* %1, align 4
  %38 = sdiv i32 %37, 10
  store i32 %38, i32* %3, align 4
  %39 = load i32, i32* %3, align 4
  %40 = srem i32 %39, 10
  store i32 %40, i32* %4, align 4
  %41 = load i32, i32* %3, align 4
  %42 = sdiv i32 %41, 10
  store i32 %42, i32* %5, align 4
  %43 = load i32, i32* %2, align 4
  %44 = load i32, i32* %4, align 4
  %45 = load i32, i32* %5, align 4
  %46 = call i32 (i8*, ...) @printf(i8* getelementptr inbounds ([7 x i8], [7 x i8]* @.str.2, i64 0, i64 0), i32 %43, i32 %44, i32 %45)
  br label %74

47:                                               ; preds = %31, %28
  %48 = load i32, i32* %1, align 4
  %49 = icmp sge i32 %48, 1000
  br i1 %49, label %50, label %71

50:                                               ; preds = %47
  %51 = load i32, i32* %1, align 4
  %52 = icmp slt i32 %51, 9999
  br i1 %52, label %53, label %71

53:                                               ; preds = %50
  %54 = load i32, i32* %1, align 4
  %55 = srem i32 %54, 10
  store i32 %55, i32* %2, align 4
  %56 = load i32, i32* %1, align 4
  %57 = sdiv i32 %56, 10
  store i32 %57, i32* %3, align 4
  %58 = load i32, i32* %3, align 4
  %59 = srem i32 %58, 10
  store i32 %59, i32* %4, align 4
  %60 = load i32, i32* %3, align 4
  %61 = sdiv i32 %60, 10
  store i32 %61, i32* %5, align 4
  %62 = load i32, i32* %5, align 4
  %63 = srem i32 %62, 10
  store i32 %63, i32* %6, align 4
  %64 = load i32, i32* %5, align 4
  %65 = sdiv i32 %64, 10
  store i32 %65, i32* %7, align 4
  %66 = load i32, i32* %2, align 4
  %67 = load i32, i32* %4, align 4
  %68 = load i32, i32* %6, align 4
  %69 = load i32, i32* %7, align 4
  %70 = call i32 (i8*, ...) @printf(i8* getelementptr inbounds ([9 x i8], [9 x i8]* @.str.3, i64 0, i64 0), i32 %66, i32 %67, i32 %68, i32 %69)
  br label %73

71:                                               ; preds = %50, %47
  %72 = call i32 (i8*, ...) @printf(i8* getelementptr inbounds ([6 x i8], [6 x i8]* @.str.4, i64 0, i64 0))
  br label %73

73:                                               ; preds = %71, %53
  br label %74

74:                                               ; preds = %73, %34
  br label %75

75:                                               ; preds = %74, %20
  br label %76

76:                                               ; preds = %75, %11
  ret void
}

declare dso_local i32 @__isoc99_scanf(i8*, ...) #1

declare dso_local i32 @printf(i8*, ...) #1


!llvm.module.flags = !{!0}
!llvm.ident = !{!1}

!0 = !{i32 1, !"wchar_size", i32 4}
!1 = !{!"clang version 10.0.0-4ubuntu1 "}
